target datalayout = "e-m:e-p270:32:32-p271:32:32-p272:64:64-i64:64-i128:128-f80:128-n8:16:32:64-S128"
target triple = "x86_64-pc-linux-gnu"

%"class.pxrInternal_v0_24__pxrReserved__::Trace_AggregateTreeBuilder" = type { %"class.pxrInternal_v0_24__pxrReserved__::TraceCollection::Visitor", ptr, %"class.pxrInternal_v0_24__pxrReserved__::TfRefPtr" }
%"class.pxrInternal_v0_24__pxrReserved__::TraceCollection::Visitor" = type { ptr }
%"class.pxrInternal_v0_24__pxrReserved__::TfRefPtr" = type { ptr }

; Function Attrs: mustprogress uwtable
define void @_ZN32pxrInternal_v0_24__pxrReserved__26Trace_AggregateTreeBuilder23AddEventTreeToAggregateEPNS_18TraceAggregateTreeERKNS_8TfRefPtrINS_14TraceEventTreeEEERKNS_15TraceCollectionE(ptr noundef %0, ptr noundef nonnull align 8 dereferenceable(8) %1, ptr noundef nonnull align 8 dereferenceable(48) %2) #0 align 2 personality ptr @__gxx_personality_v0 {
  %4 = alloca ptr, align 8
  %5 = alloca ptr, align 8
  %6 = alloca ptr, align 8
  %7 = alloca %"class.pxrInternal_v0_24__pxrReserved__::Trace_AggregateTreeBuilder", align 8
  %8 = alloca ptr, align 8
  %9 = alloca i32, align 4
  store ptr %0, ptr %4, align 8
  store ptr %1, ptr %5, align 8
  store ptr %2, ptr %6, align 8
  %10 = load ptr, ptr %4, align 8
  %11 = load ptr, ptr %5, align 8
  call void @_ZN32pxrInternal_v0_24__pxrReserved__26Trace_AggregateTreeBuilderC1EPNS_18TraceAggregateTreeERKNS_8TfRefPtrINS_14TraceEventTreeEEE(ptr noundef nonnull align 8 dereferenceable(24) %7, ptr noundef %10, ptr noundef nonnull align 8 dereferenceable(8) %11)
  invoke void @_ZN32pxrInternal_v0_24__pxrReserved__26Trace_AggregateTreeBuilder21_CreateAggregateNodesEv(ptr noundef nonnull align 8 dereferenceable(24) %7)
          to label %12 unwind label %15

12:                                               ; preds = %3
  %13 = load ptr, ptr %6, align 8
  invoke void @_ZN32pxrInternal_v0_24__pxrReserved__26Trace_AggregateTreeBuilder16_ProcessCountersERKNS_15TraceCollectionE(ptr noundef nonnull align 8 dereferenceable(24) %7, ptr noundef nonnull align 8 dereferenceable(48) %13)
          to label %14 unwind label %15

14:                                               ; preds = %12
  call void @_ZN32pxrInternal_v0_24__pxrReserved__26Trace_AggregateTreeBuilderD2Ev(ptr noundef nonnull align 8 dereferenceable(24) %7) #13
  ret void

15:                                               ; preds = %12, %3
  %16 = landingpad { ptr, i32 }
          cleanup
  %17 = extractvalue { ptr, i32 } %16, 0
  store ptr %17, ptr %8, align 8
  %18 = extractvalue { ptr, i32 } %16, 1
  store i32 %18, ptr %9, align 4
  call void @_ZN32pxrInternal_v0_24__pxrReserved__26Trace_AggregateTreeBuilderD2Ev(ptr noundef nonnull align 8 dereferenceable(24) %7) #13
  br label %19

19:                                               ; preds = %15
  %20 = load ptr, ptr %8, align 8
  %21 = load i32, ptr %9, align 4
  %22 = insertvalue { ptr, i32 } poison, ptr %20, 0
  %23 = insertvalue { ptr, i32 } %22, i32 %21, 1
  resume { ptr, i32 } %23
}