; Function Attrs: mustprogress uwtable
define void @_ZN32pxrInternal_v0_24__pxrReserved__26Trace_AggregateTreeBuilder23AddEventTreeToAggregateEPNS_18TraceAggregateTreeERKNS_8TfRefPtrINS_14TraceEventTreeEEERKNS_15TraceCollectionE(ptr noundef %0, ptr noundef nonnull align 8 dereferenceable(8) %1, ptr noundef nonnull align 8 dereferenceable(48) %2) local_unnamed_addr #0 align 2 personality ptr @__gxx_personality_v0 {
  %4 = alloca %"class.pxrInternal_v0_24__pxrReserved__::Trace_AggregateTreeBuilder", align 8
  call void @_ZN32pxrInternal_v0_24__pxrReserved__26Trace_AggregateTreeBuilderC1EPNS_18TraceAggregateTreeERKNS_8TfRefPtrINS_14TraceEventTreeEEE(ptr noundef nonnull align 8 dereferenceable(24) %4, ptr noundef %0, ptr noundef nonnull align 8 dereferenceable(8) %1)
  invoke void @_ZN32pxrInternal_v0_24__pxrReserved__26Trace_AggregateTreeBuilder21_CreateAggregateNodesEv(ptr noundef nonnull align 8 dereferenceable(24) %4)
          to label %5 unwind label %32

5:                                                ; preds = %3
  invoke void @_ZN32pxrInternal_v0_24__pxrReserved__26Trace_AggregateTreeBuilder16_ProcessCountersERKNS_15TraceCollectionE(ptr noundef nonnull align 8 dereferenceable(24) %4, ptr noundef nonnull align 8 dereferenceable(48) %2)
          to label %6 unwind label %32

6:                                                ; preds = %5
  store ptr getelementptr inbounds inrange(-16, 64) (i8, ptr @_ZTVN32pxrInternal_v0_24__pxrReserved__26Trace_AggregateTreeBuilderE, i64 16), ptr %4, align 8
  %7 = getelementptr inbounds nuw i8, ptr %4, i64 16
  %8 = load ptr, ptr %7, align 8
  %.not.i.i.i.i = icmp eq ptr %8, null
  br i1 %.not.i.i.i.i, label %_ZN32pxrInternal_v0_24__pxrReserved__26Trace_AggregateTreeBuilderD2Ev.exit, label %9

9:                                                ; preds = %6
  %10 = getelementptr inbounds nuw i8, ptr %8, i64 8
  %11 = load atomic i32, ptr %10 monotonic, align 4
  %12 = icmp slt i32 %11, 0
  br i1 %12, label %13, label %_ZN32pxrInternal_v0_24__pxrReserved__30Tf_RefPtr_UniqueChangedCounter9RemoveRefEPKNS_9TfRefBaseE.exit.i.i.i

13:                                               ; preds = %9
  %.not68.i.i.i.i = icmp eq i32 %11, -2
  br i1 %.not68.i.i.i.i, label %21, label %14

14:                                               ; preds = %13
  %15 = add nsw i32 %11, 1
  %16 = cmpxchg weak ptr %10, i32 %11, i32 %15 release monotonic, align 4
  %17 = extractvalue { i32, i1 } %16, 1
  %18 = extractvalue { i32, i1 } %16, 0
  br i1 %17, label %19, label %21

19:                                               ; preds = %14
  %20 = icmp eq i32 %11, -1
  br i1 %20, label %25, label %_ZN32pxrInternal_v0_24__pxrReserved__26Trace_AggregateTreeBuilderD2Ev.exit

21:                                               ; preds = %14, %13
  %.067.i.i.i.i = phi i32 [ %18, %14 ], [ -2, %13 ]
  %22 = invoke noundef zeroext i1 @_ZN32pxrInternal_v0_24__pxrReserved__30Tf_RefPtr_UniqueChangedCounter21_RemoveRefMaybeLockedEPKNS_9TfRefBaseEi(ptr noundef nonnull %8, i32 noundef %.067.i.i.i.i)
          to label %.noexc.i.i unwind label %29

.noexc.i.i:                                       ; preds = %21
  br i1 %22, label %25, label %_ZN32pxrInternal_v0_24__pxrReserved__26Trace_AggregateTreeBuilderD2Ev.exit

_ZN32pxrInternal_v0_24__pxrReserved__30Tf_RefPtr_UniqueChangedCounter9RemoveRefEPKNS_9TfRefBaseE.exit.i.i.i: ; preds = %9
  %23 = atomicrmw sub ptr %10, i32 1 release, align 4
  %24 = icmp eq i32 %23, 1
  br i1 %24, label %25, label %_ZN32pxrInternal_v0_24__pxrReserved__26Trace_AggregateTreeBuilderD2Ev.exit

25:                                               ; preds = %_ZN32pxrInternal_v0_24__pxrReserved__30Tf_RefPtr_UniqueChangedCounter9RemoveRefEPKNS_9TfRefBaseE.exit.i.i.i, %.noexc.i.i, %19
  %26 = load ptr, ptr %8, align 8
  %27 = getelementptr inbounds i8, ptr %26, i64 8
  %28 = load ptr, ptr %27, align 8
  call void %28(ptr noundef nonnull align 8 dereferenceable(12) %8) #16
  br label %_ZN32pxrInternal_v0_24__pxrReserved__26Trace_AggregateTreeBuilderD2Ev.exit

29:                                               ; preds = %21
  %30 = landingpad { ptr, i32 }
          catch ptr null
  %31 = extractvalue { ptr, i32 } %30, 0
  call void @__clang_call_terminate(ptr %31) #17
  unreachable

_ZN32pxrInternal_v0_24__pxrReserved__26Trace_AggregateTreeBuilderD2Ev.exit: ; preds = %6, %19, %.noexc.i.i, %_ZN32pxrInternal_v0_24__pxrReserved__30Tf_RefPtr_UniqueChangedCounter9RemoveRefEPKNS_9TfRefBaseE.exit.i.i.i, %25
  call void @_ZN32pxrInternal_v0_24__pxrReserved__15TraceCollection7VisitorD2Ev(ptr noundef nonnull align 8 dereferenceable(8) %4) #16
  ret void

32:                                               ; preds = %5, %3
  %33 = landingpad { ptr, i32 }
          cleanup
  call void @_ZN32pxrInternal_v0_24__pxrReserved__26Trace_AggregateTreeBuilderD2Ev(ptr noundef nonnull align 8 dereferenceable(24) %4) #16
  resume { ptr, i32 } %33
}